Certificate:
    Data:
        Version: 1 (0x0)
        Serial Number: 1 (0x1)
        Signature Algorithm: sha512WithRSAEncryption
        Issuer: C=PL, ST=Mazovian, L=Nowa Iwiczna, O=rucinsk1, CN=rucinsk1
        Validity
            Not Before: Jan 14 10:34:27 2021 GMT
            Not After : Jan 14 10:34:27 2022 GMT
        Subject: C=PL, ST=Mazovian, L=Nowa Iwiczna, O=Ochrona danych projekt, CN=rucinsk1
        Subject Public Key Info:
            Public Key Algorithm: rsaEncryption
                RSA Public-Key: (2048 bit)
                Modulus:
                    00:f7:3e:80:ef:58:62:c1:0b:a8:83:82:4e:a2:1c:
                    e5:61:9e:01:a8:f7:b6:b8:f0:bc:b1:45:dc:90:11:
                    67:69:5e:01:0d:8c:72:fd:9b:c1:13:a1:31:81:73:
                    bd:7d:86:cd:7f:40:40:7b:6c:97:98:d3:1c:44:4a:
                    65:a7:c9:17:49:9e:aa:c2:2a:79:88:c2:7a:42:e9:
                    03:c8:fb:b4:41:5d:94:bd:38:3a:cd:f7:26:93:59:
                    5c:59:f6:8e:18:2a:e3:d5:4a:c1:86:0c:21:5b:42:
                    f2:4a:f2:e4:65:84:ea:8e:06:02:f9:17:6b:b7:8d:
                    d2:a4:fc:6a:a5:ec:de:cb:bc:09:a0:77:2d:12:e4:
                    44:16:00:8c:9b:40:2d:48:8a:9f:d1:8c:35:fb:2f:
                    66:a7:e5:27:16:14:4b:38:fc:dc:e7:64:90:41:05:
                    bf:f8:f3:57:a3:8f:a5:5e:eb:13:59:10:29:d4:4e:
                    11:31:b8:5b:0b:03:83:2c:d8:4a:dd:be:2b:86:15:
                    ae:2e:ff:db:83:3b:fd:d3:8a:10:4d:bc:03:6b:b6:
                    9e:2a:1d:1c:c4:9b:bf:47:8c:8d:d1:49:35:71:a0:
                    cb:ac:8f:eb:61:bd:6c:dc:93:f2:cf:5d:98:ff:0a:
                    a1:81:fd:2f:9e:5b:9b:e0:79:96:0c:cd:39:7a:25:
                    7c:93
                Exponent: 65537 (0x10001)
    Signature Algorithm: sha512WithRSAEncryption
         7a:c4:7a:9d:dc:e9:44:49:43:2b:73:e7:05:77:a5:c9:0b:3f:
         f7:87:53:0c:07:48:21:be:7f:ce:e1:ad:28:0f:0c:cb:5a:df:
         c6:4f:bf:2d:c0:46:37:90:f7:09:71:b5:71:84:72:61:eb:41:
         e0:ae:5f:76:a0:a2:61:e2:2b:f3:2b:ef:0e:09:2a:94:a1:43:
         06:c5:a8:38:af:17:1e:89:20:85:0c:7f:77:53:29:79:c9:d3:
         28:f5:dc:90:c5:39:82:fe:63:a8:b5:bc:97:d1:48:85:23:a2:
         86:f2:41:ed:03:f6:9b:de:e6:12:7d:96:d1:dd:12:90:1b:bc:
         28:ff:c7:69:f7:05:14:24:3e:77:a0:d6:a4:1d:ad:82:63:c7:
         84:af:c4:7c:6d:a3:5b:05:09:84:fd:e5:2a:0a:81:fe:47:e2:
         8e:72:80:82:77:81:fe:c9:41:0d:bf:d5:77:ba:ed:f8:d2:90:
         41:0d:8e:4b:a8:04:e1:4f:f4:51:84:df:7a:2a:44:c3:82:f9:
         dc:97:65:7c:f1:6a:26:de:1d:02:56:e6:48:f4:3b:01:78:44:
         ee:d5:4c:11:e9:94:bd:da:c4:fb:cd:48:21:7f:44:73:d4:83:
         08:56:2c:22:bd:95:8c:61:70:6c:67:09:8b:89:cb:6e:1a:9c:
         3e:c5:e7:f8:7d:bf:d8:d3:14:d7:13:56:d7:7c:22:d7:e4:5d:
         63:f3:87:4c:b1:72:27:76:3f:42:20:b1:0c:4a:e6:85:26:3d:
         a1:11:55:02:12:47:c3:2d:dd:07:a1:7c:0e:39:92:e3:2e:33:
         d4:26:d6:c4:c7:f8:99:c6:cc:60:d2:67:f2:0e:8b:55:1c:62:
         ec:a2:ec:01:c1:35:f7:4a:bc:ca:4f:09:e6:d7:2e:37:d3:ac:
         73:d4:05:92:f6:e8:a7:2d:bb:24:53:90:27:5e:ec:ab:55:1f:
         43:f4:df:63:c6:be:87:51:2f:44:55:23:9d:cf:17:4e:d6:79:
         a9:24:5f:3e:bc:e9:12:0f:54:fb:d9:84:3d:82:40:ae:80:97:
         49:47:ba:4b:ac:33:f1:94:57:ca:b9:27:c1:90:3a:fd:af:8e:
         9d:44:f6:76:21:05:8c:89:cf:c9:12:78:63:9e:22:37:23:9f:
         c5:f8:33:71:8e:6c:ca:99:a5:aa:7f:d5:7e:38:7c:87:a4:b2:
         dc:d2:55:e6:83:aa:bb:87:c1:bd:13:ca:15:7e:e5:ec:67:27:
         85:ed:07:78:ce:30:ad:00:f0:e4:26:56:02:dc:7d:20:b5:47:
         0d:19:c5:01:f1:07:3d:2d:6e:52:be:be:61:84:1c:83:11:5e:
         8a:a8:d8:f3:67:75:24:af
-----BEGIN CERTIFICATE-----
MIIEPDCCAiQCAQEwDQYJKoZIhvcNAQENBQAwXTELMAkGA1UEBhMCUEwxETAPBgNV
BAgMCE1hem92aWFuMRUwEwYDVQQHDAxOb3dhIEl3aWN6bmExETAPBgNVBAoMCHJ1
Y2luc2sxMREwDwYDVQQDDAhydWNpbnNrMTAeFw0yMTAxMTQxMDM0MjdaFw0yMjAx
MTQxMDM0MjdaMGsxCzAJBgNVBAYTAlBMMREwDwYDVQQIDAhNYXpvdmlhbjEVMBMG
A1UEBwwMTm93YSBJd2ljem5hMR8wHQYDVQQKDBZPY2hyb25hIGRhbnljaCBwcm9q
ZWt0MREwDwYDVQQDDAhydWNpbnNrMTCCASIwDQYJKoZIhvcNAQEBBQADggEPADCC
AQoCggEBAPc+gO9YYsELqIOCTqIc5WGeAaj3trjwvLFF3JARZ2leAQ2Mcv2bwROh
MYFzvX2GzX9AQHtsl5jTHERKZafJF0meqsIqeYjCekLpA8j7tEFdlL04Os33JpNZ
XFn2jhgq49VKwYYMIVtC8kry5GWE6o4GAvkXa7eN0qT8aqXs3su8CaB3LRLkRBYA
jJtALUiKn9GMNfsvZqflJxYUSzj83OdkkEEFv/jzV6OPpV7rE1kQKdROETG4WwsD
gyzYSt2+K4YVri7/24M7/dOKEE28A2u2niodHMSbv0eMjdFJNXGgy6yP62G9bNyT
8s9dmP8KoYH9L55bm+B5lgzNOXolfJMCAwEAATANBgkqhkiG9w0BAQ0FAAOCAgEA
esR6ndzpRElDK3PnBXelyQs/94dTDAdIIb5/zuGtKA8My1rfxk+/LcBGN5D3CXG1
cYRyYetB4K5fdqCiYeIr8yvvDgkqlKFDBsWoOK8XHokghQx/d1MpecnTKPXckMU5
gv5jqLW8l9FIhSOihvJB7QP2m97mEn2W0d0SkBu8KP/HafcFFCQ+d6DWpB2tgmPH
hK/EfG2jWwUJhP3lKgqB/kfijnKAgneB/slBDb/Vd7rt+NKQQQ2OS6gE4U/0UYTf
eipEw4L53JdlfPFqJt4dAlbmSPQ7AXhE7tVMEemUvdrE+81IIX9Ec9SDCFYsIr2V
jGFwbGcJi4nLbhqcPsXn+H2/2NMU1xNW13wi1+RdY/OHTLFyJ3Y/QiCxDErmhSY9
oRFVAhJHwy3dB6F8DjmS4y4z1CbWxMf4mcbMYNJn8g6LVRxi7KLsAcE190q8yk8J
5tcuN9Osc9QFkvbopy27JFOQJ17sq1UfQ/TfY8a+h1EvRFUjnc8XTtZ5qSRfPrzp
Eg9U+9mEPYJAroCXSUe6S6wz8ZRXyrknwZA6/a+OnUT2diEFjInPyRJ4Y54iNyOf
xfgzcY5sypmlqn/Vfjh8h6Sy3NJV5oOqu4fBvRPKFX7l7Gcnhe0HeM4wrQDw5CZW
Atx9ILVHDRnFAfEHPS1uUr6+YYQcgxFeiqjY82d1JK8=
-----END CERTIFICATE-----
